ccopy_reg
_reconstructor
p0
(cgoogle.oauth2.credentials
Credentials
p1
c__builtin__
object
p2
Ntp3
Rp4
(dp5
S'_token_uri'
p6
Vhttps://oauth2.googleapis.com/token
p7
sS'_scopes'
p8
(lp9
S'https://www.googleapis.com/auth/calendar.readonly'
p10
asS'_id_token'
p11
NsS'token'
p12
Vya29.GlzmBiPaN3uya7sjGsjRujbU9wKz3K9laBLurnV68t0q8IuKyk9W4BDD9Mdy6TFsWk-xYxeDBCKFzNUrWnEDQvlBQWOK2b2lV1QYonI8qrvU3wABcj3Njvu6QN0ehw
p13
sS'_refresh_token'
p14
V1/RIpzE8_60c7QR478cLDVCT3NgiPgtL-nOof0C4yKsGEJxxpe74EggAR6WiDY4DXH
p15
sS'_client_secret'
p16
VbZAvQgAeH-SmgM_UOsbxJAJi
p17
sS'_client_id'
p18
V837782808758-5o3j9ic59cl2g0gqf9kp0voh2su1nvi7.apps.googleusercontent.com
p19
sS'expiry'
p20
cdatetime
datetime
p21
(S'\x07\xe3\x04\n\r/5\nl\xc9'
p22
tp23
Rp24
sb.