ccopy_reg
_reconstructor
p0
(cgoogle.oauth2.credentials
Credentials
p1
c__builtin__
object
p2
Ntp3
Rp4
(dp5
S'_token_uri'
p6
Vhttps://oauth2.googleapis.com/token
p7
sS'_client_secret'
p8
VDr0o4p5NlBlZzJLFtK6vNAE0
p9
sS'_id_token'
p10
NsS'token'
p11
Vya29.GlveBsEuEZIlMwQHTLKAE2h92V9X_vGUPVkAgxTCxbjMx2yEAgXDZxlLaXeqk3p2l8NsEAmzCFQ1EhRffgw66nUD8-TK9omIPeXXWwEedX6Gq2jeNbf2acb6LDKu
p12
sS'_refresh_token'
p13
V1/RLloDTB1Ja2FUvvsJ6YT-6ogVs2oXBhhhq-XSQwv3pk
p14
sS'_scopes'
p15
(lp16
S'https://www.googleapis.com/auth/calendar.readonly'
p17
asS'_client_id'
p18
V716457196817-1pavcdnv873hdo17jqgf4v26332019ff.apps.googleusercontent.com
p19
sS'expiry'
p20
cdatetime
datetime
p21
(S'\x07\xe3\x04\x01\r!6\r^B'
p22
tp23
Rp24
sb.