ccopy_reg
_reconstructor
p0
(cgoogle.oauth2.credentials
Credentials
p1
c__builtin__
object
p2
Ntp3
Rp4
(dp5
S'_token_uri'
p6
Vhttps://oauth2.googleapis.com/token
p7
sS'_client_secret'
p8
VAea-m7CrBH0YURcMtXVW9Mwc
p9
sS'_id_token'
p10
NsS'token'
p11
Vya29.GlvgBqaSxWoknoxeX9v8oy3fOP2mizwDr1aWxmiL7e7zyUm1AHhykW_r3-ekTDfz-VXNBL54h45EJyrfl2F4AbPHwHceer2AhkpfIesauqsR4srZW9GygzbV1Yzm
p12
sS'_refresh_token'
p13
V1/DvAun7hUtlAVEcUF1FQLsU8EucAoAn5dXBgkluRKlfExDMDqRKloL5nuxVsz0r1N
p14
sS'_scopes'
p15
(lp16
S'https://www.googleapis.com/auth/calendar.readonly'
p17
asS'_client_id'
p18
V716457196817-jkimgrk3s1djkt7ei2236d9qu65suq1h.apps.googleusercontent.com
p19
sS'expiry'
p20
cdatetime
datetime
p21
(S'\x07\xe3\x04\x03\x14\r!\x01\x02\xcb'
p22
tp23
Rp24
sb.