ccopy_reg
_reconstructor
p0
(cgoogle.oauth2.credentials
Credentials
p1
c__builtin__
object
p2
Ntp3
Rp4
(dp5
S'_token_uri'
p6
Vhttps://oauth2.googleapis.com/token
p7
sS'_client_secret'
p8
VUevv7_T58LQRJxnLOQQGL_GR
p9
sS'_id_token'
p10
NsS'token'
p11
Vya29.GlvhBsdaOFKaSXyKIdeJJQwyGdChQLGnh7I3CXfWZL_iTUMKzUHY1GrK9sQ03LxLt6cQVC4c-edjAO3BCSoZJzKOlCcxJLmLrZkh64cx7yQHBXS9a_bMkSQ97nkq
p12
sS'_refresh_token'
p13
V1/4J5fheRD-FDKRyFwRjDr1hI8uSAIF9B9r9fWPBl7dLap9a_gmuJ6vCGgREVUF_J9
p14
sS'_scopes'
p15
(lp16
S'https://www.googleapis.com/auth/calendar.readonly'
p17
asS'_client_id'
p18
V622871824856-j8sohmnph2k5c09pe7s3dldn6diqo7nb.apps.googleusercontent.com
p19
sS'expiry'
p20
cdatetime
datetime
p21
(S'\x07\xe3\x04\x04\x0c*8\x04&\x13'
p22
tp23
Rp24
sb.