ccopy_reg
_reconstructor
p0
(cgoogle.oauth2.credentials
Credentials
p1
c__builtin__
object
p2
Ntp3
Rp4
(dp5
S'_token_uri'
p6
Vhttps://oauth2.googleapis.com/token
p7
sS'_scopes'
p8
(lp9
S'https://www.googleapis.com/auth/calendar.readonly'
p10
asS'_id_token'
p11
NsS'token'
p12
Vya29.GlzsBk-c2BS6H3_g_13ezVi1wsVVui-TNGMO5vsaz9SUF3eSxUeYkMrgWBMgGdMDHlOGzsT1RwzjGwcHZF7eeKxEe783DeFJhtuaHMivfOINDvOmBCS_1B9yxJDnKw
p13
sS'_refresh_token'
p14
V1/4JwFMVjIoQr0t_WW7ENMdhALBhPs46y9wErFypIagsQ
p15
sS'_client_secret'
p16
VS55DSHiYIykzAZ-NP8BFIi4j
p17
sS'_client_id'
p18
V1016648884730-jlvdbqdfaug2m9fdr4t6s3h21ipatbhm.apps.googleusercontent.com
p19
sS'expiry'
p20
cdatetime
datetime
p21
(S'\x07\xe3\x04\x0f\r#\x16\x0c^\xb7'
p22
tp23
Rp24
sb.