ccopy_reg
_reconstructor
p0
(cgoogle.oauth2.credentials
Credentials
p1
c__builtin__
object
p2
Ntp3
Rp4
(dp5
S'_token_uri'
p6
Vhttps://oauth2.googleapis.com/token
p7
sS'_client_secret'
p8
VgW1OmR2mRQp_6S4XuBQ4YpXZ
p9
sS'_id_token'
p10
NsS'token'
p11
Vya29.GlveBuSCCn4bt8C1XFPO7b6nTxNAyk4XyfsJQDykYif74dn2QR5XNEwIB8aL411-BmzRqhdhUri1HvJYgdBfcJ6RwNNrFBxgaOm20tZ1FKjDsqJFhqP3ih6aBh_e
p12
sS'_refresh_token'
p13
V1/yJeucQpzDxRuC9BWmGmtqJm-t08gBfaumE8cWu38gFpt8OCypjZTI0q3sCcZzH3W
p14
sS'_scopes'
p15
(lp16
S'https://www.googleapis.com/auth/calendar.readonly'
p17
asS'_client_id'
p18
V3219977757-98pqdljrh9mu100tv7hv3q9a4i7b3ooe.apps.googleusercontent.com
p19
sS'expiry'
p20
cdatetime
datetime
p21
(S'\x07\xe3\x04\x01\r-\x07\r2%'
p22
tp23
Rp24
sb.