ccopy_reg
_reconstructor
p0
(cgoogle.oauth2.credentials
Credentials
p1
c__builtin__
object
p2
Ntp3
Rp4
(dp5
S'_token_uri'
p6
Vhttps://oauth2.googleapis.com/token
p7
sS'_scopes'
p8
(lp9
S'https://www.googleapis.com/auth/calendar.readonly'
p10
asS'_id_token'
p11
NsS'token'
p12
Vya29.GlztBheurFUwnJd8-1yl2LgG8Wd1QnBJsl1QmUqrCvzOeSam2ZG50xjoAB-OdWjRR3QRf7CFwX6g4_TPrA1-AsnTQ8aNMDyKbndVmdQk5Aj9U2uf62RUUcnAz4Mizw
p13
sS'_refresh_token'
p14
V1/4J5fheRD-FDKRyFwRjDr1hI8uSAIF9B9r9fWPBl7dLap9a_gmuJ6vCGgREVUF_J9
p15
sS'_client_secret'
p16
VUevv7_T58LQRJxnLOQQGL_GR
p17
sS'_client_id'
p18
V622871824856-j8sohmnph2k5c09pe7s3dldn6diqo7nb.apps.googleusercontent.com
p19
sS'expiry'
p20
cdatetime
datetime
p21
(S'\x07\xe3\x04\x10\r\x038\x05\xd0\xdf'
p22
tp23
Rp24
sb.