ccopy_reg
_reconstructor
p0
(cgoogle.oauth2.credentials
Credentials
p1
c__builtin__
object
p2
Ntp3
Rp4
(dp5
S'_token_uri'
p6
Vhttps://oauth2.googleapis.com/token
p7
sS'_scopes'
p8
(lp9
S'https://www.googleapis.com/auth/calendar.readonly'
p10
asS'_id_token'
p11
NsS'token'
p12
Vya29.GlzeBraUPKt1kBMtqIszT546xp2nAhb2SYNk-lsXXgD8-wxSL8MPIaPvKScu0Qsbj6yqcFH0aE2ACuadXiNmS2GA5fmEU9GRmT3OU2dzc0lGURnA4Fn2GrHRuOqnhw
p13
sS'_refresh_token'
p14
V1/yJeucQpzDxRuC9BWmGmtqJm-t08gBfaumE8cWu38gFpt8OCypjZTI0q3sCcZzH3W
p15
sS'_client_secret'
p16
VgW1OmR2mRQp_6S4XuBQ4YpXZ
p17
sS'_client_id'
p18
V3219977757-98pqdljrh9mu100tv7hv3q9a4i7b3ooe.apps.googleusercontent.com
p19
sS'expiry'
p20
cdatetime
datetime
p21
(S'\x07\xe3\x04\x01\x12\n\x0b\x07\xfe\x95'
p22
tp23
Rp24
sb.