ccopy_reg
_reconstructor
p0
(cgoogle.oauth2.credentials
Credentials
p1
c__builtin__
object
p2
Ntp3
Rp4
(dp5
S'_token_uri'
p6
Vhttps://oauth2.googleapis.com/token
p7
sS'_scopes'
p8
(lp9
S'https://www.googleapis.com/auth/calendar.readonly'
p10
asS'_id_token'
p11
NsS'token'
p12
Vya29.GlzmBtvQBueMAo4s2kFKS703pWNBjFBt2cZ2XC2ClXd2d3H5pbw_HmdiCdMl6lPB3V18Yt3PVlF6WkcuPJQNGnZCfBjSd4kg61lkOk2sTnu_udox8JAujxYivt2lKA
p13
sS'_refresh_token'
p14
V1/4J5fheRD-FDKRyFwRjDr1hI8uSAIF9B9r9fWPBl7dLap9a_gmuJ6vCGgREVUF_J9
p15
sS'_client_secret'
p16
VUevv7_T58LQRJxnLOQQGL_GR
p17
sS'_client_id'
p18
V622871824856-j8sohmnph2k5c09pe7s3dldn6diqo7nb.apps.googleusercontent.com
p19
sS'expiry'
p20
cdatetime
datetime
p21
(S'\x07\xe3\x04\t\x14(.\x0b\x03\xb0'
p22
tp23
Rp24
sb.