ccopy_reg
_reconstructor
p0
(cgoogle.oauth2.credentials
Credentials
p1
c__builtin__
object
p2
Ntp3
Rp4
(dp5
S'_token_uri'
p6
Vhttps://oauth2.googleapis.com/token
p7
sS'_client_secret'
p8
VAea-m7CrBH0YURcMtXVW9Mwc
p9
sS'_id_token'
p10
NsS'token'
p11
Vya29.GlvfBlFoke_Bg5aMNMCKsHpS68pXp9OgXbvwQVkPGlweVASeGrYajQ_ci18K3dFrJ936KbbGJebaLBHl-jfJnrG7Z5-ycgFqIT-6P3wStT283GSoqqsVaOqr9y6z
p12
sS'_refresh_token'
p13
V1/VYESvksiActQPYKeFTAO7ALDz63ZHfwl7GqqVZlaYEvV-p7sytTQYP3iw_0Jq-WK
p14
sS'_scopes'
p15
(lp16
S'https://www.googleapis.com/auth/calendar.readonly'
p17
asS'_client_id'
p18
V716457196817-jkimgrk3s1djkt7ei2236d9qu65suq1h.apps.googleusercontent.com
p19
sS'expiry'
p20
cdatetime
datetime
p21
(S'\x07\xe3\x04\x02\x157\x12\x02|.'
p22
tp23
Rp24
sb.