ccopy_reg
_reconstructor
p0
(cgoogle.oauth2.credentials
Credentials
p1
c__builtin__
object
p2
Ntp3
Rp4
(dp5
S'_token_uri'
p6
Vhttps://oauth2.googleapis.com/token
p7
sS'_scopes'
p8
(lp9
S'https://www.googleapis.com/auth/calendar.readonly'
p10
asS'_id_token'
p11
NsS'token'
p12
Vya29.GlzlBr4y4cwKmXGCnNkNQf6wNSVFvIQejgiOqsJJ3j6ypT6_r8KVdVnbHB1RYPP3PPUnHVf2eZJMlw9WqeeEHHEDyi2BOjJQCVxAoGL_ayVEFzsLfC5YmHxfNn4Nsw
p13
sS'_refresh_token'
p14
V1/JoNeMDNhEQ4BXNGQns9ZMnPmjh290buYQxFBIcTLb94
p15
sS'_client_secret'
p16
V1P3nHfAb2Chn7g-KoSjAa_5w
p17
sS'_client_id'
p18
V837782808758-amp4ivlddtduj8rf85csgh9dsdt3kudi.apps.googleusercontent.com
p19
sS'expiry'
p20
cdatetime
datetime
p21
(S'\x07\xe3\x04\x08\x11#)\x082u'
p22
tp23
Rp24
sb.