ccopy_reg
_reconstructor
p0
(cgoogle.oauth2.credentials
Credentials
p1
c__builtin__
object
p2
Ntp3
Rp4
(dp5
S'_token_uri'
p6
Vhttps://oauth2.googleapis.com/token
p7
sS'_scopes'
p8
(lp9
S'https://www.googleapis.com/auth/calendar.readonly'
p10
asS'_id_token'
p11
NsS'token'
p12
Vya29.GlzpBiMPRXG_odFF99ayacJ-D1JXxCl2ZVo5IUw3FSNmSvDJiKxekK1vRiUHLByEFRAAJ2PrkPKvTimh6e3_-1xtmDVR2R7P4TSTdqeyKChJBJSi4HQYd3CfwBRT1g
p13
sS'_refresh_token'
p14
V1/RIpzE8_60c7QR478cLDVCT3NgiPgtL-nOof0C4yKsGEJxxpe74EggAR6WiDY4DXH
p15
sS'_client_secret'
p16
VbZAvQgAeH-SmgM_UOsbxJAJi
p17
sS'_client_id'
p18
V837782808758-5o3j9ic59cl2g0gqf9kp0voh2su1nvi7.apps.googleusercontent.com
p19
sS'expiry'
p20
cdatetime
datetime
p21
(S'\x07\xe3\x04\x0c\x0e9\x1f\x05\xdb\xbf'
p22
tp23
Rp24
sb.