ccopy_reg
_reconstructor
p0
(cgoogle.oauth2.credentials
Credentials
p1
c__builtin__
object
p2
Ntp3
Rp4
(dp5
S'_token_uri'
p6
Vhttps://oauth2.googleapis.com/token
p7
sS'_client_secret'
p8
VbZAvQgAeH-SmgM_UOsbxJAJi
p9
sS'_id_token'
p10
NsS'token'
p11
Vya29.GlvhBuGsPssmNAuWKRfYtqw6OXem0jEILEuG1VySjcBPi9aGxIlM9xyBnQ4Oo9NM3Qolx8Vw7ySvxFj7g5g3DKFYFUTW2PhzwXlHJg2MCwOP68nLwE3pHlNpfH1p
p12
sS'_refresh_token'
p13
V1/RIpzE8_60c7QR478cLDVCT3NgiPgtL-nOof0C4yKsGEJxxpe74EggAR6WiDY4DXH
p14
sS'_scopes'
p15
(lp16
S'https://www.googleapis.com/auth/calendar.readonly'
p17
asS'_client_id'
p18
V837782808758-5o3j9ic59cl2g0gqf9kp0voh2su1nvi7.apps.googleusercontent.com
p19
sS'expiry'
p20
cdatetime
datetime
p21
(S'\x07\xe3\x04\x04\r\x01#\x0e\xdf\xf0'
p22
tp23
Rp24
sb.